target datalayout = "e-m:e-p270:32:32-p271:32:32-p272:64:64-i64:64-i128:128-f80:128-n8:16:32:64-S128"
target triple = "x86_64-pc-linux-gnu"

%struct.pointf_s = type { double, double }

; Function Attrs: nounwind uwtable
define internal i32 @sortf(ptr noundef %0, ptr noundef %1) #0 {
  %3 = alloca i32, align 4
  %4 = alloca ptr, align 8
  %5 = alloca ptr, align 8
  %6 = alloca ptr, align 8
  %7 = alloca ptr, align 8
  %8 = alloca i32, align 4
  store ptr %0, ptr %4, align 8, !tbaa !51
  store ptr %1, ptr %5, align 8, !tbaa !51
  call void @llvm.lifetime.start.p0(i64 8, ptr %6) #12
  %9 = load ptr, ptr %4, align 8, !tbaa !51
  store ptr %9, ptr %6, align 8, !tbaa !100
  call void @llvm.lifetime.start.p0(i64 8, ptr %7) #12
  %10 = load ptr, ptr %5, align 8, !tbaa !51
  store ptr %10, ptr %7, align 8, !tbaa !100
  %11 = load ptr, ptr %6, align 8, !tbaa !100
  %12 = getelementptr inbounds nuw %struct.pointf_s, ptr %11, i32 0, i32 0
  %13 = load double, ptr %12, align 8, !tbaa !98
  %14 = load ptr, ptr %7, align 8, !tbaa !100
  %15 = getelementptr inbounds nuw %struct.pointf_s, ptr %14, i32 0, i32 0
  %16 = load double, ptr %15, align 8, !tbaa !98
  %17 = fcmp olt double %13, %16
  br i1 %17, label %18, label %19

18:                                               ; preds = %2
  store i32 -1, ptr %3, align 4
  store i32 1, ptr %8, align 4
  br label %47

19:                                               ; preds = %2
  %20 = load ptr, ptr %6, align 8, !tbaa !100
  %21 = getelementptr inbounds nuw %struct.pointf_s, ptr %20, i32 0, i32 0
  %22 = load double, ptr %21, align 8, !tbaa !98
  %23 = load ptr, ptr %7, align 8, !tbaa !100
  %24 = getelementptr inbounds nuw %struct.pointf_s, ptr %23, i32 0, i32 0
  %25 = load double, ptr %24, align 8, !tbaa !98
  %26 = fcmp ogt double %22, %25
  br i1 %26, label %27, label %28

27:                                               ; preds = %19
  store i32 1, ptr %3, align 4
  store i32 1, ptr %8, align 4
  br label %47

28:                                               ; preds = %19
  %29 = load ptr, ptr %6, align 8, !tbaa !100
  %30 = getelementptr inbounds nuw %struct.pointf_s, ptr %29, i32 0, i32 1
  %31 = load double, ptr %30, align 8, !tbaa !97
  %32 = load ptr, ptr %7, align 8, !tbaa !100
  %33 = getelementptr inbounds nuw %struct.pointf_s, ptr %32, i32 0, i32 1
  %34 = load double, ptr %33, align 8, !tbaa !97
  %35 = fcmp olt double %31, %34
  br i1 %35, label %36, label %37

36:                                               ; preds = %28
  store i32 -1, ptr %3, align 4
  store i32 1, ptr %8, align 4
  br label %47

37:                                               ; preds = %28
  %38 = load ptr, ptr %6, align 8, !tbaa !100
  %39 = getelementptr inbounds nuw %struct.pointf_s, ptr %38, i32 0, i32 1
  %40 = load double, ptr %39, align 8, !tbaa !97
  %41 = load ptr, ptr %7, align 8, !tbaa !100
  %42 = getelementptr inbounds nuw %struct.pointf_s, ptr %41, i32 0, i32 1
  %43 = load double, ptr %42, align 8, !tbaa !97
  %44 = fcmp ogt double %40, %43
  br i1 %44, label %45, label %46

45:                                               ; preds = %37
  store i32 1, ptr %3, align 4
  store i32 1, ptr %8, align 4
  br label %47

46:                                               ; preds = %37
  store i32 0, ptr %3, align 4
  store i32 1, ptr %8, align 4
  br label %47

47:                                               ; preds = %46, %45, %36, %27, %18
  call void @llvm.lifetime.end.p0(i64 8, ptr %7) #12
  call void @llvm.lifetime.end.p0(i64 8, ptr %6) #12
  %48 = load i32, ptr %3, align 4
  ret i32 %48
}