; Function Attrs: mustprogress nofree norecurse nosync nounwind willreturn memory(argmem: read) uwtable
define internal range(i32 -1, 2) i32 @sortf(ptr noundef readonly captures(none) %0, ptr noundef readonly captures(none) %1) #4 {
  %3 = load double, ptr %0, align 8, !tbaa !94
  %4 = load double, ptr %1, align 8, !tbaa !94
  %5 = fcmp olt double %3, %4
  br i1 %5, label %16, label %6

6:                                                ; preds = %2
  %7 = fcmp ogt double %3, %4
  br i1 %7, label %16, label %8

8:                                                ; preds = %6
  %9 = getelementptr inbounds nuw i8, ptr %0, i64 8
  %10 = load double, ptr %9, align 8, !tbaa !95
  %11 = getelementptr inbounds nuw i8, ptr %1, i64 8
  %12 = load double, ptr %11, align 8, !tbaa !95
  %13 = fcmp olt double %10, %12
  br i1 %13, label %16, label %14

14:                                               ; preds = %8
  %15 = fcmp ogt double %10, %12
  %. = zext i1 %15 to i32
  br label %16

16:                                               ; preds = %14, %8, %6, %2
  %.0 = phi i32 [ -1, %2 ], [ 1, %6 ], [ -1, %8 ], [ %., %14 ]
  ret i32 %.0
}